; Function Attrs: nounwind uwtable
define zeroext range(i8 0, 2) i8 @l___private_Lean_Compiler_InitAttr_0__Lean_isIOUnit(ptr noundef %0) local_unnamed_addr #0 {
  %2 = tail call ptr @l___private_Lean_Compiler_InitAttr_0__Lean_getIOTypeArg(ptr noundef %0)
  %3 = ptrtoint ptr %2 to i64
  %4 = and i64 %3, 1
  %.not.i12 = icmp eq i64 %4, 0
  br i1 %.not.i12, label %8, label %5

5:                                                ; preds = %1
  %6 = lshr i64 %3, 1
  %7 = trunc i64 %6 to i32
  br label %lean_obj_tag.exit

8:                                                ; preds = %1
  %9 = getelementptr i8, ptr %2, i64 4
  %.val.i = load i32, ptr %9, align 4
  %10 = lshr i32 %.val.i, 24
  br label %lean_obj_tag.exit

lean_obj_tag.exit:                                ; preds = %5, %8
  %.0.i = phi i32 [ %7, %5 ], [ %10, %8 ]
  %11 = icmp eq i32 %.0.i, 0
  br i1 %11, label %lean_dec.exit, label %12

12:                                               ; preds = %lean_obj_tag.exit
  %13 = getelementptr inbounds nuw i8, ptr %2, i64 8
  %14 = load ptr, ptr %13, align 8, !tbaa !4
  %15 = ptrtoint ptr %14 to i64
  %16 = and i64 %15, 1
  %.not = icmp eq i64 %16, 0
  br i1 %.not, label %17, label %lean_inc.exit

17:                                               ; preds = %12
  %.val.i13 = load i32, ptr %14, align 4, !tbaa !10
  %18 = icmp sgt i32 %.val.i13, 0
  br i1 %18, label %19, label %21, !prof !13

19:                                               ; preds = %17
  %20 = add nuw i32 %.val.i13, 1
  store i32 %20, ptr %14, align 4, !tbaa !10
  br label %lean_inc.exit

21:                                               ; preds = %17
  %.not.i14 = icmp eq i32 %.val.i13, 0
  br i1 %.not.i14, label %lean_inc.exit, label %22

22:                                               ; preds = %21
  tail call void @lean_inc_ref_cold(ptr noundef nonnull %14) #5
  br label %lean_inc.exit

lean_inc.exit:                                    ; preds = %22, %21, %19, %12
  br i1 %.not.i12, label %23, label %lean_dec.exit9

23:                                               ; preds = %lean_inc.exit
  %24 = load i32, ptr %2, align 4, !tbaa !10
  %25 = icmp sgt i32 %24, 1
  br i1 %25, label %26, label %28, !prof !13

26:                                               ; preds = %23
  %27 = add nsw i32 %24, -1
  store i32 %27, ptr %2, align 4, !tbaa !10
  br label %lean_dec.exit9

28:                                               ; preds = %23
  %.not.i = icmp eq i32 %24, 0
  br i1 %.not.i, label %lean_dec.exit9, label %29

29:                                               ; preds = %28
  tail call void @lean_dec_ref_cold(ptr noundef nonnull %2) #5
  br label %lean_dec.exit9

lean_dec.exit9:                                   ; preds = %29, %28, %26, %lean_inc.exit
  br i1 %.not, label %33, label %30

30:                                               ; preds = %lean_dec.exit9
  %31 = lshr i64 %15, 1
  %32 = trunc i64 %31 to i32
  br label %lean_obj_tag.exit.i

33:                                               ; preds = %lean_dec.exit9
  %34 = getelementptr i8, ptr %14, i64 4
  %.val.i.i = load i32, ptr %34, align 4
  %35 = lshr i32 %.val.i.i, 24
  br label %lean_obj_tag.exit.i

lean_obj_tag.exit.i:                              ; preds = %33, %30
  %.0.i.i = phi i32 [ %32, %30 ], [ %35, %33 ]
  %36 = icmp eq i32 %.0.i.i, 4
  br i1 %36, label %37, label %l___private_Lean_Compiler_InitAttr_0__Lean_isUnitType.exit

37:                                               ; preds = %lean_obj_tag.exit.i
  %38 = getelementptr inbounds nuw i8, ptr %14, i64 8
  %39 = load ptr, ptr %38, align 8, !tbaa !4
  %40 = ptrtoint ptr %39 to i64
  %41 = and i64 %40, 1
  %.not.i12.i = icmp eq i64 %41, 0
  br i1 %.not.i12.i, label %45, label %42

42:                                               ; preds = %37
  %43 = lshr i64 %40, 1
  %44 = trunc i64 %43 to i32
  br label %lean_obj_tag.exit15.i

45:                                               ; preds = %37
  %46 = getelementptr i8, ptr %39, i64 4
  %.val.i14.i = load i32, ptr %46, align 4
  %47 = lshr i32 %.val.i14.i, 24
  br label %lean_obj_tag.exit15.i

lean_obj_tag.exit15.i:                            ; preds = %45, %42
  %.0.i13.i = phi i32 [ %44, %42 ], [ %47, %45 ]
  %48 = icmp eq i32 %.0.i13.i, 1
  br i1 %48, label %49, label %l___private_Lean_Compiler_InitAttr_0__Lean_isUnitType.exit

49:                                               ; preds = %lean_obj_tag.exit15.i
  %50 = getelementptr inbounds nuw i8, ptr %39, i64 8
  %51 = load ptr, ptr %50, align 8, !tbaa !4
  %52 = ptrtoint ptr %51 to i64
  %53 = and i64 %52, 1
  %.not.i16.i = icmp eq i64 %53, 0
  br i1 %.not.i16.i, label %57, label %54

54:                                               ; preds = %49
  %55 = lshr i64 %52, 1
  %56 = trunc i64 %55 to i32
  br label %lean_obj_tag.exit19.i

57:                                               ; preds = %49
  %58 = getelementptr i8, ptr %51, i64 4
  %.val.i18.i = load i32, ptr %58, align 4
  %59 = lshr i32 %.val.i18.i, 24
  br label %lean_obj_tag.exit19.i

lean_obj_tag.exit19.i:                            ; preds = %57, %54
  %.0.i17.i = phi i32 [ %56, %54 ], [ %59, %57 ]
  %60 = icmp eq i32 %.0.i17.i, 0
  br i1 %60, label %61, label %l___private_Lean_Compiler_InitAttr_0__Lean_isUnitType.exit

61:                                               ; preds = %lean_obj_tag.exit19.i
  %62 = getelementptr inbounds nuw i8, ptr %39, i64 16
  %63 = load ptr, ptr %62, align 8, !tbaa !4
  %64 = load ptr, ptr @l___private_Lean_Compiler_InitAttr_0__Lean_isUnitType___closed__1, align 8, !tbaa !4
  %65 = icmp eq ptr %63, %64
  br i1 %65, label %l___private_Lean_Compiler_InitAttr_0__Lean_isUnitType.exit, label %66

66:                                               ; preds = %61
  %67 = getelementptr i8, ptr %63, i64 8
  %.val.i.i.i = load i64, ptr %67, align 8, !tbaa !8
  %68 = getelementptr i8, ptr %64, i64 8
  %.val7.i.i.i = load i64, ptr %68, align 8, !tbaa !8
  %69 = icmp eq i64 %.val.i.i.i, %.val7.i.i.i
  br i1 %69, label %70, label %l___private_Lean_Compiler_InitAttr_0__Lean_isUnitType.exit

70:                                               ; preds = %66
  %71 = tail call zeroext i1 @lean_string_eq_cold(ptr noundef nonnull %63, ptr noundef nonnull %64) #5
  %72 = zext i1 %71 to i8
  br label %l___private_Lean_Compiler_InitAttr_0__Lean_isUnitType.exit

l___private_Lean_Compiler_InitAttr_0__Lean_isUnitType.exit: ; preds = %lean_obj_tag.exit.i, %lean_obj_tag.exit15.i, %lean_obj_tag.exit19.i, %61, %66, %70
  %.2.i = phi i8 [ 0, %lean_obj_tag.exit19.i ], [ 0, %lean_obj_tag.exit15.i ], [ 0, %lean_obj_tag.exit.i ], [ 1, %61 ], [ 0, %66 ], [ %72, %70 ]
  br i1 %.not, label %73, label %lean_dec.exit

73:                                               ; preds = %l___private_Lean_Compiler_InitAttr_0__Lean_isUnitType.exit
  %74 = load i32, ptr %14, align 4, !tbaa !10
  %75 = icmp sgt i32 %74, 1
  br i1 %75, label %76, label %78, !prof !13

76:                                               ; preds = %73
  %77 = add nsw i32 %74, -1
  store i32 %77, ptr %14, align 4, !tbaa !10
  br label %lean_dec.exit

78:                                               ; preds = %73
  %.not.i10 = icmp eq i32 %74, 0
  br i1 %.not.i10, label %lean_dec.exit, label %79

79:                                               ; preds = %78
  tail call void @lean_dec_ref_cold(ptr noundef nonnull %14) #5
  br label %lean_dec.exit

lean_dec.exit:                                    ; preds = %l___private_Lean_Compiler_InitAttr_0__Lean_isUnitType.exit, %76, %78, %79, %lean_obj_tag.exit
  %.0 = phi i8 [ 0, %lean_obj_tag.exit ], [ %.2.i, %79 ], [ %.2.i, %78 ], [ %.2.i, %76 ], [ %.2.i, %l___private_Lean_Compiler_InitAttr_0__Lean_isUnitType.exit ]
  ret i8 %.0
}